; Function Attrs: nounwind uwtable
define dso_local noundef i64 @jsonb_string_to_tsvector_byid(ptr noundef readonly captures(none) %0) local_unnamed_addr #0 {
  %2 = alloca %struct.TSVectorBuildState, align 8
  %3 = alloca %struct.ParsedText, align 8
  %4 = getelementptr inbounds nuw i8, ptr %0, i64 32
  %5 = load i64, ptr %4, align 8
  %6 = trunc i64 %5 to i32
  %7 = getelementptr inbounds nuw i8, ptr %0, i64 48
  %8 = load i64, ptr %7, align 8
  %9 = inttoptr i64 %8 to ptr
  %10 = tail call ptr @pg_detoast_datum(ptr noundef %9) #8
  call void @llvm.lifetime.start.p0(i64 16, ptr nonnull %2) #8
  call void @llvm.lifetime.start.p0(i64 24, ptr nonnull %3) #8
  store ptr null, ptr %3, align 8
  %11 = getelementptr inbounds nuw i8, ptr %3, i64 12
  store i32 0, ptr %11, align 4
  store ptr %3, ptr %2, align 8
  %12 = getelementptr inbounds nuw i8, ptr %2, i64 8
  store i32 %6, ptr %12, align 8
  call void @iterate_jsonb_values(ptr noundef %10, i32 noundef 2, ptr noundef nonnull %2, ptr noundef nonnull @add_to_tsvector) #8
  %13 = call noundef ptr @make_tsvector(ptr noundef nonnull %3)
  call void @llvm.lifetime.end.p0(i64 24, ptr nonnull %3) #8
  call void @llvm.lifetime.end.p0(i64 16, ptr nonnull %2) #8
  %14 = load i64, ptr %7, align 8
  %15 = inttoptr i64 %14 to ptr
  %.not = icmp eq ptr %10, %15
  br i1 %.not, label %17, label %16

16:                                               ; preds = %1
  call void @pfree(ptr noundef %10) #8
  br label %17

17:                                               ; preds = %16, %1
  %18 = ptrtoint ptr %13 to i64
  ret i64 %18
}